ccopy_reg
_reconstructor
p0
(cgoogle.oauth2.credentials
Credentials
p1
c__builtin__
object
p2
Ntp3
Rp4
(dp5
S'_quota_project_id'
p6
NsS'_token_uri'
p7
Vhttps://oauth2.googleapis.com/token
p8
sS'_scopes'
p9
(lp10
S'https://www.googleapis.com/auth/drive'
p11
asS'_default_scopes'
p12
NsS'expiry'
p13
cdatetime
datetime
p14
(S"\x07\xe6\x08\x12\x14\x1a'\x01Yo"
p15
tp16
Rp17
sS'token'
p18
Vya29.A0AVA9y1v9z7UuzMv4k185s-9iKl_d7F4ef3HOcVa6_XGgyLKvL7SI_JePg6lvy-ke7jBEwZ_A0j9NR6sZc2k2etqS9R-iUEpbKpm6DOYPg5QQYDX4yEiOuhVDILrGr0mE_3QqP8KD6Q20DxKjqC1FNYFUotUGaCgYKATASATASFQE65dr8g-UCR-_ME1Iig__kxsjWLg0163
p19
sS'_refresh_token'
p20
V1//07uCF4fJhvRc4CgYIARAAGAcSNwF-L9IrkL_FE3a6Fqat4Jw9ipk4fdDD5c30HmhjXkgFt5zW3XHiyVQURlHFagTaRRLFWba9A3M
p21
sS'_client_secret'
p22
VGOCSPX-z54MW0A_uuyV67XNvbwfeiqKuhHq
p23
sS'_client_id'
p24
V610817299194-4jh36lj6is9jpcqf0a8ncejcbflcklip.apps.googleusercontent.com
p25
sS'_id_token'
p26
NsS'_rapt_token'
p27
Nsb.